ARM GAS  C:\Users\xxy\AppData\Local\Temp\ccwoAiBv.s 			page 1


   1              		.cpu cortex-m3
   2              		.eabi_attribute 20, 1
   3              		.eabi_attribute 21, 1
   4              		.eabi_attribute 23, 3
   5              		.eabi_attribute 24, 1
   6              		.eabi_attribute 25, 1
   7              		.eabi_attribute 26, 1
   8              		.eabi_attribute 30, 1
   9              		.eabi_attribute 34, 1
  10              		.eabi_attribute 18, 4
  11              		.file	"freertos.c"
  12              		.text
  13              	.Ltext0:
  14              		.cfi_sections	.debug_frame
  15              		.section	.text.StartDefaultTask,"ax",%progbits
  16              		.align	1
  17              		.global	StartDefaultTask
  18              		.arch armv7-m
  19              		.syntax unified
  20              		.thumb
  21              		.thumb_func
  22              		.fpu softvfp
  24              	StartDefaultTask:
  25              	.LVL0:
  26              	.LFB79:
  27              		.file 1 "Src/freertos.c"
   1:Src/freertos.c **** /* USER CODE BEGIN Header */
   2:Src/freertos.c **** /**
   3:Src/freertos.c ****   ******************************************************************************
   4:Src/freertos.c ****   * File Name          : freertos.c
   5:Src/freertos.c ****   * Description        : Code for freertos applications
   6:Src/freertos.c ****   ******************************************************************************
   7:Src/freertos.c ****   * @attention
   8:Src/freertos.c ****   *
   9:Src/freertos.c ****   * <h2><center>&copy; Copyright (c) 2019 STMicroelectronics.
  10:Src/freertos.c ****   * All rights reserved.</center></h2>
  11:Src/freertos.c ****   *
  12:Src/freertos.c ****   * This software component is licensed by ST under Ultimate Liberty license
  13:Src/freertos.c ****   * SLA0044, the "License"; You may not use this file except in compliance with
  14:Src/freertos.c ****   * the License. You may obtain a copy of the License at:
  15:Src/freertos.c ****   *                             www.st.com/SLA0044
  16:Src/freertos.c ****   *
  17:Src/freertos.c ****   ******************************************************************************
  18:Src/freertos.c ****   */
  19:Src/freertos.c **** /* USER CODE END Header */
  20:Src/freertos.c **** 
  21:Src/freertos.c **** /* Includes ------------------------------------------------------------------*/
  22:Src/freertos.c **** #include "FreeRTOS.h"
  23:Src/freertos.c **** #include "task.h"
  24:Src/freertos.c **** #include "main.h"
  25:Src/freertos.c **** #include "cmsis_os.h"
  26:Src/freertos.c **** 
  27:Src/freertos.c **** /* Private includes ----------------------------------------------------------*/
  28:Src/freertos.c **** /* USER CODE BEGIN Includes */     
  29:Src/freertos.c **** // for OpenOCD to debug with FreeRTOS   
  30:Src/freertos.c **** #ifdef __GNUC__
  31:Src/freertos.c **** #define USED __attribute__((used))
ARM GAS  C:\Users\xxy\AppData\Local\Temp\ccwoAiBv.s 			page 2


  32:Src/freertos.c **** #else
  33:Src/freertos.c **** #define USED
  34:Src/freertos.c **** #endif
  35:Src/freertos.c **** 
  36:Src/freertos.c **** const int USED uxTopUsedPriority = configMAX_PRIORITIES - 1;
  37:Src/freertos.c **** /* USER CODE END Includes */
  38:Src/freertos.c **** 
  39:Src/freertos.c **** /* Private typedef -----------------------------------------------------------*/
  40:Src/freertos.c **** /* USER CODE BEGIN PTD */
  41:Src/freertos.c **** 
  42:Src/freertos.c **** /* USER CODE END PTD */
  43:Src/freertos.c **** 
  44:Src/freertos.c **** /* Private define ------------------------------------------------------------*/
  45:Src/freertos.c **** /* USER CODE BEGIN PD */
  46:Src/freertos.c **** 
  47:Src/freertos.c **** /* USER CODE END PD */
  48:Src/freertos.c **** 
  49:Src/freertos.c **** /* Private macro -------------------------------------------------------------*/
  50:Src/freertos.c **** /* USER CODE BEGIN PM */
  51:Src/freertos.c **** 
  52:Src/freertos.c **** /* USER CODE END PM */
  53:Src/freertos.c **** 
  54:Src/freertos.c **** /* Private variables ---------------------------------------------------------*/
  55:Src/freertos.c **** /* USER CODE BEGIN Variables */
  56:Src/freertos.c **** 
  57:Src/freertos.c **** /* USER CODE END Variables */
  58:Src/freertos.c **** osThreadId defaultTaskHandle;
  59:Src/freertos.c **** 
  60:Src/freertos.c **** /* Private function prototypes -----------------------------------------------*/
  61:Src/freertos.c **** /* USER CODE BEGIN FunctionPrototypes */
  62:Src/freertos.c ****    
  63:Src/freertos.c **** /* USER CODE END FunctionPrototypes */
  64:Src/freertos.c **** 
  65:Src/freertos.c **** void StartDefaultTask(void const * argument);
  66:Src/freertos.c **** 
  67:Src/freertos.c **** extern void MX_FATFS_Init(void);
  68:Src/freertos.c **** void MX_FREERTOS_Init(void); /* (MISRA C 2004 rule 8.1) */
  69:Src/freertos.c **** 
  70:Src/freertos.c **** /**
  71:Src/freertos.c ****   * @brief  FreeRTOS initialization
  72:Src/freertos.c ****   * @param  None
  73:Src/freertos.c ****   * @retval None
  74:Src/freertos.c ****   */
  75:Src/freertos.c **** void MX_FREERTOS_Init(void) {
  76:Src/freertos.c ****   /* USER CODE BEGIN Init */
  77:Src/freertos.c ****        
  78:Src/freertos.c ****   /* USER CODE END Init */
  79:Src/freertos.c **** 
  80:Src/freertos.c ****   /* USER CODE BEGIN RTOS_MUTEX */
  81:Src/freertos.c ****   /* add mutexes, ... */
  82:Src/freertos.c ****   /* USER CODE END RTOS_MUTEX */
  83:Src/freertos.c **** 
  84:Src/freertos.c ****   /* USER CODE BEGIN RTOS_SEMAPHORES */
  85:Src/freertos.c ****   /* add semaphores, ... */
  86:Src/freertos.c ****   /* USER CODE END RTOS_SEMAPHORES */
  87:Src/freertos.c **** 
  88:Src/freertos.c ****   /* USER CODE BEGIN RTOS_TIMERS */
ARM GAS  C:\Users\xxy\AppData\Local\Temp\ccwoAiBv.s 			page 3


  89:Src/freertos.c ****   /* start timers, add new ones, ... */
  90:Src/freertos.c ****   /* USER CODE END RTOS_TIMERS */
  91:Src/freertos.c **** 
  92:Src/freertos.c ****   /* USER CODE BEGIN RTOS_QUEUES */
  93:Src/freertos.c ****   /* add queues, ... */
  94:Src/freertos.c ****   /* USER CODE END RTOS_QUEUES */
  95:Src/freertos.c **** 
  96:Src/freertos.c ****   /* Create the thread(s) */
  97:Src/freertos.c ****   /* definition and creation of defaultTask */
  98:Src/freertos.c ****   osThreadDef(defaultTask, StartDefaultTask, osPriorityNormal, 0, 128);
  99:Src/freertos.c ****   defaultTaskHandle = osThreadCreate(osThread(defaultTask), NULL);
 100:Src/freertos.c **** 
 101:Src/freertos.c ****   /* USER CODE BEGIN RTOS_THREADS */
 102:Src/freertos.c ****   /* add threads, ... */
 103:Src/freertos.c ****   /* USER CODE END RTOS_THREADS */
 104:Src/freertos.c **** 
 105:Src/freertos.c **** }
 106:Src/freertos.c **** 
 107:Src/freertos.c **** /* USER CODE BEGIN Header_StartDefaultTask */
 108:Src/freertos.c **** /**
 109:Src/freertos.c ****   * @brief  Function implementing the defaultTask thread.
 110:Src/freertos.c ****   * @param  argument: Not used 
 111:Src/freertos.c ****   * @retval None
 112:Src/freertos.c ****   */
 113:Src/freertos.c **** /* USER CODE END Header_StartDefaultTask */
 114:Src/freertos.c **** void StartDefaultTask(void const * argument)
 115:Src/freertos.c **** {
  28              		.loc 1 115 1 view -0
  29              		.cfi_startproc
  30              		@ Volatile: function does not return.
  31              		@ args = 0, pretend = 0, frame = 0
  32              		@ frame_needed = 0, uses_anonymous_args = 0
  33              		.loc 1 115 1 is_stmt 0 view .LVU1
  34 0000 08B5     		push	{r3, lr}
  35              	.LCFI0:
  36              		.cfi_def_cfa_offset 8
  37              		.cfi_offset 3, -8
  38              		.cfi_offset 14, -4
 116:Src/freertos.c ****   /* init code for FATFS */
 117:Src/freertos.c ****   MX_FATFS_Init();
  39              		.loc 1 117 3 is_stmt 1 view .LVU2
  40 0002 FFF7FEFF 		bl	MX_FATFS_Init
  41              	.LVL1:
 118:Src/freertos.c **** 
 119:Src/freertos.c ****   /* USER CODE BEGIN StartDefaultTask */
 120:Src/freertos.c ****   HAL_GPIO_TogglePin(RedLED_GPIO_Port, RedLED_Pin);
  42              		.loc 1 120 3 view .LVU3
  43 0006 094C     		ldr	r4, .L4
  44 0008 2021     		movs	r1, #32
  45 000a 2046     		mov	r0, r4
  46 000c FFF7FEFF 		bl	HAL_GPIO_TogglePin
  47              	.LVL2:
 121:Src/freertos.c ****   HAL_GPIO_TogglePin(BlueLED_GPIO_Port, BlueLED_Pin);
  48              		.loc 1 121 3 view .LVU4
  49 0010 0221     		movs	r1, #2
  50 0012 2046     		mov	r0, r4
  51 0014 FFF7FEFF 		bl	HAL_GPIO_TogglePin
ARM GAS  C:\Users\xxy\AppData\Local\Temp\ccwoAiBv.s 			page 4


  52              	.LVL3:
  53              	.L2:
 122:Src/freertos.c ****   /* Infinite loop */
 123:Src/freertos.c ****   for(;;)
  54              		.loc 1 123 3 discriminator 1 view .LVU5
 124:Src/freertos.c ****   {
 125:Src/freertos.c ****     HAL_GPIO_TogglePin(GreenLED_GPIO_Port, GreenLED_Pin);
  55              		.loc 1 125 5 discriminator 1 view .LVU6
  56 0018 0121     		movs	r1, #1
  57 001a 0448     		ldr	r0, .L4
  58 001c FFF7FEFF 		bl	HAL_GPIO_TogglePin
  59              	.LVL4:
 126:Src/freertos.c ****     osDelay(500);
  60              		.loc 1 126 5 discriminator 1 view .LVU7
  61 0020 4FF4FA70 		mov	r0, #500
  62 0024 FFF7FEFF 		bl	osDelay
  63              	.LVL5:
  64 0028 F6E7     		b	.L2
  65              	.L5:
  66 002a 00BF     		.align	2
  67              	.L4:
  68 002c 000C0140 		.word	1073810432
  69              		.cfi_endproc
  70              	.LFE79:
  72              		.section	.text.MX_FREERTOS_Init,"ax",%progbits
  73              		.align	1
  74              		.global	MX_FREERTOS_Init
  75              		.syntax unified
  76              		.thumb
  77              		.thumb_func
  78              		.fpu softvfp
  80              	MX_FREERTOS_Init:
  81              	.LFB78:
  75:Src/freertos.c ****   /* USER CODE BEGIN Init */
  82              		.loc 1 75 29 view -0
  83              		.cfi_startproc
  84              		@ args = 0, pretend = 0, frame = 24
  85              		@ frame_needed = 0, uses_anonymous_args = 0
  86 0000 30B5     		push	{r4, r5, lr}
  87              	.LCFI1:
  88              		.cfi_def_cfa_offset 12
  89              		.cfi_offset 4, -12
  90              		.cfi_offset 5, -8
  91              		.cfi_offset 14, -4
  92 0002 87B0     		sub	sp, sp, #28
  93              	.LCFI2:
  94              		.cfi_def_cfa_offset 40
  98:Src/freertos.c ****   defaultTaskHandle = osThreadCreate(osThread(defaultTask), NULL);
  95              		.loc 1 98 3 view .LVU9
  96 0004 01AC     		add	r4, sp, #4
  97 0006 064D     		ldr	r5, .L8
  98 0008 0FCD     		ldmia	r5!, {r0, r1, r2, r3}
  99 000a 0FC4     		stmia	r4!, {r0, r1, r2, r3}
 100 000c 2B68     		ldr	r3, [r5]
 101 000e 2360     		str	r3, [r4]
  99:Src/freertos.c **** 
 102              		.loc 1 99 3 view .LVU10
ARM GAS  C:\Users\xxy\AppData\Local\Temp\ccwoAiBv.s 			page 5


  99:Src/freertos.c **** 
 103              		.loc 1 99 23 is_stmt 0 view .LVU11
 104 0010 0021     		movs	r1, #0
 105 0012 01A8     		add	r0, sp, #4
 106 0014 FFF7FEFF 		bl	osThreadCreate
 107              	.LVL6:
  99:Src/freertos.c **** 
 108              		.loc 1 99 21 view .LVU12
 109 0018 024B     		ldr	r3, .L8+4
 110 001a 1860     		str	r0, [r3]
 105:Src/freertos.c **** 
 111              		.loc 1 105 1 view .LVU13
 112 001c 07B0     		add	sp, sp, #28
 113              	.LCFI3:
 114              		.cfi_def_cfa_offset 12
 115              		@ sp needed
 116 001e 30BD     		pop	{r4, r5, pc}
 117              	.L9:
 118              		.align	2
 119              	.L8:
 120 0020 00000000 		.word	.LANCHOR0
 121 0024 00000000 		.word	defaultTaskHandle
 122              		.cfi_endproc
 123              	.LFE78:
 125              		.comm	defaultTaskHandle,4,4
 126              		.global	uxTopUsedPriority
 127              		.section	.rodata
 128              		.align	2
 129              		.set	.LANCHOR0,. + 0
 130              	.LC2:
 131 0000 00000000 		.word	.LC0
 132 0004 00000000 		.word	StartDefaultTask
 133 0008 0000     		.short	0
 134 000a 0000     		.space	2
 135 000c 00000000 		.word	0
 136 0010 80000000 		.word	128
 137              		.section	.rodata.str1.4,"aMS",%progbits,1
 138              		.align	2
 139              	.LC0:
 140 0000 64656661 		.ascii	"defaultTask\000"
 140      756C7454 
 140      61736B00 
 141              		.section	.rodata.uxTopUsedPriority,"a"
 142              		.align	2
 145              	uxTopUsedPriority:
 146 0000 06000000 		.word	6
 147              		.text
 148              	.Letext0:
 149              		.file 2 "D:\\MinGW\\include/stdint.h"
 150              		.file 3 "Middlewares/Third_Party/FreeRTOS/Source/include/task.h"
 151              		.file 4 "Inc/FreeRTOSConfig.h"
 152              		.file 5 "Drivers/CMSIS/Include/core_cm3.h"
 153              		.file 6 "Drivers/CMSIS/Device/ST/STM32F1xx/Include/system_stm32f1xx.h"
 154              		.file 7 "Drivers/CMSIS/Device/ST/STM32F1xx/Include/stm32f103xe.h"
 155              		.file 8 "D:\\MinGW\\include/stdio.h"
 156              		.file 9 "Drivers/STM32F1xx_HAL_Driver/Inc/stm32f1xx_hal.h"
 157              		.file 10 "Middlewares/Third_Party/FreeRTOS/Source/CMSIS_RTOS/cmsis_os.h"
ARM GAS  C:\Users\xxy\AppData\Local\Temp\ccwoAiBv.s 			page 6


 158              		.file 11 "Drivers/STM32F1xx_HAL_Driver/Inc/stm32f1xx_hal_gpio.h"
ARM GAS  C:\Users\xxy\AppData\Local\Temp\ccwoAiBv.s 			page 7

